target datalayout = "e-m:e-p270:32:32-p271:32:32-p272:64:64-i64:64-i128:128-f80:128-n8:16:32:64-S128"
target triple = "x86_64-pc-linux-gnu"

%struct.darktable_t = type { %struct.dt_codepath_t, i32, i32, ptr, ptr, ptr, ptr, ptr, ptr, ptr, ptr, ptr, ptr, ptr, ptr, ptr, ptr, ptr, ptr, ptr, ptr, ptr, ptr, ptr, ptr, ptr, ptr, ptr, ptr, ptr, [64 x %struct.dt_pthread_mutex_t], %struct.dt_pthread_mutex_t, %struct.dt_pthread_mutex_t, %struct.dt_pthread_mutex_t, %struct.dt_pthread_mutex_t, %struct.dt_pthread_mutex_t, ptr, ptr, ptr, ptr, ptr, ptr, ptr, ptr, ptr, ptr, ptr, ptr, ptr, %struct.dt_lua_state_t, ptr, double, ptr, i32, [47 x i32], i32, i32, ptr, ptr, %struct.dt_sys_resources_t, %struct.dt_backthumb_t, %struct.dt_gimp_t }
%struct.dt_codepath_t = type { i8, [3 x i8] }
%struct.dt_pthread_mutex_t = type { %union.pthread_mutex_t }
%union.pthread_mutex_t = type { %struct.__pthread_mutex_s }
%struct.__pthread_mutex_s = type { i32, i32, i32, i32, i32, i16, i16, %struct.__pthread_internal_list }
%struct.__pthread_internal_list = type { ptr, ptr }
%struct.dt_lua_state_t = type { i32 }
%struct.dt_sys_resources_t = type { i64, i64, ptr, ptr, i32 }
%struct.dt_backthumb_t = type { double, double, i32, i32, i32, i32 }
%struct.dt_gimp_t = type { i32, ptr, ptr, i32, i32 }
%struct.dt_camctl_t = type { %struct.dt_pthread_mutex_t, %struct.dt_pthread_mutex_t, i64, ptr, ptr, ptr, ptr, ptr, ptr, ptr, ptr, i32, i32, i32 }
%struct.dt_camera_t = type { ptr, ptr, %struct.CameraText, ptr, ptr, %struct.dt_pthread_mutex_t, i32, i32, i32, i32, i32, i32, i32, i32, i32, ptr, %struct.dt_pthread_mutex_t, ptr, %struct.anon, ptr, ptr, i32, i32, i32, i32, ptr, i32, i32, i32, i32, i32, i32, i32, i32, i64, %struct.dt_pthread_mutex_t, %struct.dt_pthread_mutex_t }
%struct.CameraText = type { [32768 x i8] }
%struct.anon = type { ptr, i32 }
%struct._camctl_camera_job_t = type { i32 }
%struct.timeval = type { i64, i64 }

@darktable = external global %struct.darktable_t, align 8
@.str.37 = private unnamed_addr constant [10 x i8] c"live view\00", align 1
@.str.38 = private unnamed_addr constant [42 x i8] c"[camera_control] live view thread started\00", align 1
@.str.39 = private unnamed_addr constant [37 x i8] c"plugins/capture/camera/live_view_fps\00", align 1
@.str.40 = private unnamed_addr constant [7 x i8] c"%d fps\00", align 1
@.str.41 = private unnamed_addr constant [42 x i8] c"[camera_control] live view thread stopped\00", align 1

; Function Attrs: inlinehint nounwind uwtable
define internal i32 @dt_pthread_mutex_unlock(ptr noundef %0) #4 {
  %2 = alloca ptr, align 8
  store ptr %0, ptr %2, align 8, !tbaa !91
  %3 = load ptr, ptr %2, align 8, !tbaa !91
  %4 = getelementptr inbounds nuw %struct.dt_pthread_mutex_t, ptr %3, i32 0, i32 0
  %5 = call i32 @pthread_mutex_unlock(ptr noundef %4) #10
  ret i32 %5
}

; Function Attrs: inlinehint nounwind uwtable
define internal i32 @dt_pthread_mutex_lock(ptr noundef %0) #4 {
  %2 = alloca ptr, align 8
  store ptr %0, ptr %2, align 8, !tbaa !91
  %3 = load ptr, ptr %2, align 8, !tbaa !91
  %4 = getelementptr inbounds nuw %struct.dt_pthread_mutex_t, ptr %3, i32 0, i32 0
  %5 = call i32 @pthread_mutex_lock(ptr noundef %4) #10
  ret i32 %5
}

; Function Attrs: nounwind uwtable
define internal void @_camera_add_job(ptr noundef %0, ptr noundef %1, ptr noundef %2) #0 {
  %4 = alloca ptr, align 8
  %5 = alloca ptr, align 8
  %6 = alloca ptr, align 8
  %7 = alloca ptr, align 8
  store ptr %0, ptr %4, align 8, !tbaa !6
  store ptr %1, ptr %5, align 8, !tbaa !21
  store ptr %2, ptr %6, align 8, !tbaa !72
  call void @llvm.lifetime.start.p0(i64 8, ptr %7) #10
  %8 = load ptr, ptr %5, align 8, !tbaa !21
  store ptr %8, ptr %7, align 8, !tbaa !21
  %9 = load ptr, ptr %7, align 8, !tbaa !21
  %10 = getelementptr inbounds nuw %struct.dt_camera_t, ptr %9, i32 0, i32 16
  %11 = call i32 @dt_pthread_mutex_lock(ptr noundef %10)
  %12 = load ptr, ptr %7, align 8, !tbaa !21
  %13 = getelementptr inbounds nuw %struct.dt_camera_t, ptr %12, i32 0, i32 17
  %14 = load ptr, ptr %13, align 8, !tbaa !164
  %15 = load ptr, ptr %6, align 8, !tbaa !72
  %16 = call ptr @g_list_append(ptr noundef %14, ptr noundef %15)
  %17 = load ptr, ptr %7, align 8, !tbaa !21
  %18 = getelementptr inbounds nuw %struct.dt_camera_t, ptr %17, i32 0, i32 17
  store ptr %16, ptr %18, align 8, !tbaa !164
  %19 = load ptr, ptr %7, align 8, !tbaa !21
  %20 = getelementptr inbounds nuw %struct.dt_camera_t, ptr %19, i32 0, i32 16
  %21 = call i32 @dt_pthread_mutex_unlock(ptr noundef %20)
  call void @llvm.lifetime.end.p0(i64 8, ptr %7) #10
  ret void
}

; Function Attrs: inlinehint nounwind uwtable
define internal i32 @dt_pthread_mutex_BAD_lock(ptr noundef %0) #4 {
  %2 = alloca ptr, align 8
  %3 = alloca i32, align 4
  store ptr %0, ptr %2, align 8, !tbaa !91
  call void @llvm.lifetime.start.p0(i64 4, ptr %3) #10
  %4 = load ptr, ptr %2, align 8, !tbaa !91
  %5 = getelementptr inbounds nuw %struct.dt_pthread_mutex_t, ptr %4, i32 0, i32 0
  %6 = call i32 @pthread_mutex_lock(ptr noundef %5) #10
  store i32 %6, ptr %3, align 4, !tbaa !64
  %7 = load i32, ptr %3, align 4, !tbaa !64
  call void @llvm.lifetime.end.p0(i64 4, ptr %3) #10
  ret i32 %7
}

; Function Attrs: inlinehint nounwind uwtable
define internal double @dt_get_wtime() #4 {
  %1 = alloca %struct.timeval, align 8
  call void @llvm.lifetime.start.p0(i64 16, ptr %1) #10
  %2 = call i32 @gettimeofday(ptr noundef %1, ptr noundef null) #10
  %3 = getelementptr inbounds nuw %struct.timeval, ptr %1, i32 0, i32 0
  %4 = load i64, ptr %3, align 8, !tbaa !186
  %5 = sub nsw i64 %4, 1290608000
  %6 = sitofp i64 %5 to double
  %7 = getelementptr inbounds nuw %struct.timeval, ptr %1, i32 0, i32 1
  %8 = load i64, ptr %7, align 8, !tbaa !188
  %9 = sitofp i64 %8 to double
  %10 = fmul reassoc nsz arcp contract afn double 0x3EB0C6F7A0B5ED8D, %9
  %11 = fadd reassoc nsz arcp contract afn double %6, %10
  call void @llvm.lifetime.end.p0(i64 16, ptr %1) #10
  ret double %11
}

; Function Attrs: nounwind uwtable
define internal ptr @dt_camctl_camera_get_live_view(ptr noundef %0) #0 {
  %2 = alloca ptr, align 8
  %3 = alloca ptr, align 8
  %4 = alloca ptr, align 8
  %5 = alloca i32, align 4
  %6 = alloca double, align 8
  %7 = alloca i32, align 4
  %8 = alloca double, align 8
  %9 = alloca ptr, align 8
  store ptr %0, ptr %2, align 8, !tbaa !72
  call void @llvm.lifetime.start.p0(i64 8, ptr %3) #10
  %10 = load ptr, ptr %2, align 8, !tbaa !72
  store ptr %10, ptr %3, align 8, !tbaa !6
  call void @llvm.lifetime.start.p0(i64 8, ptr %4) #10
  %11 = load ptr, ptr %3, align 8, !tbaa !6
  %12 = getelementptr inbounds nuw %struct.dt_camctl_t, ptr %11, i32 0, i32 10
  %13 = load ptr, ptr %12, align 8, !tbaa !11
  store ptr %13, ptr %4, align 8, !tbaa !21
  call void @dt_pthread_setname(ptr noundef @.str.37)
  br label %14

14:                                               ; preds = %1
  %15 = load i32, ptr getelementptr inbounds nuw (%struct.darktable_t, ptr @darktable, i32 0, i32 2), align 8, !tbaa !22
  %16 = and i32 32, %15
  %17 = icmp ne i32 %16, 0
  br i1 %17, label %18, label %24

18:                                               ; preds = %14
  %19 = load i32, ptr getelementptr inbounds nuw (%struct.darktable_t, ptr @darktable, i32 0, i32 2), align 8, !tbaa !22
  %20 = xor i32 %19, -1
  %21 = and i32 0, %20
  %22 = icmp ne i32 %21, 0
  br i1 %22, label %24, label %23

23:                                               ; preds = %18
  call void (ptr, ...) @dt_print_ext(ptr noundef @.str.38)
  br label %24

24:                                               ; preds = %23, %18, %14
  br label %25

25:                                               ; preds = %24
  br label %26

26:                                               ; preds = %25
  call void @llvm.lifetime.start.p0(i64 4, ptr %5) #10
  store i32 0, ptr %5, align 4, !tbaa !64
  call void @llvm.lifetime.start.p0(i64 8, ptr %6) #10
  %27 = call reassoc nsz arcp contract afn double @dt_get_wtime()
  store double %27, ptr %6, align 8, !tbaa !73
  call void @llvm.lifetime.start.p0(i64 4, ptr %7) #10
  %28 = call i32 @dt_conf_get_int(ptr noundef @.str.39)
  store i32 %28, ptr %7, align 4, !tbaa !64
  br label %29

29:                                               ; preds = %63, %26
  %30 = load ptr, ptr %4, align 8, !tbaa !21
  %31 = getelementptr inbounds nuw %struct.dt_camera_t, ptr %30, i32 0, i32 24
  %32 = load i32, ptr %31, align 4, !tbaa !62
  %33 = icmp eq i32 %32, 1
  br i1 %33, label %34, label %75

34:                                               ; preds = %29
  %35 = load ptr, ptr %4, align 8, !tbaa !21
  %36 = getelementptr inbounds nuw %struct.dt_camera_t, ptr %35, i32 0, i32 36
  %37 = call i32 @dt_pthread_mutex_BAD_lock(ptr noundef %36)
  call void @llvm.lifetime.start.p0(i64 8, ptr %8) #10
  %38 = call reassoc nsz arcp contract afn double @dt_get_wtime()
  store double %38, ptr %8, align 8, !tbaa !73
  %39 = load double, ptr %8, align 8, !tbaa !73
  %40 = load double, ptr %6, align 8, !tbaa !73
  %41 = fsub reassoc nsz arcp contract afn double %39, %40
  %42 = fcmp reassoc nsz arcp contract afn oge double %41, 1.000000e+00
  br i1 %42, label %43, label %60

43:                                               ; preds = %34
  br label %44

44:                                               ; preds = %43
  %45 = load i32, ptr getelementptr inbounds nuw (%struct.darktable_t, ptr @darktable, i32 0, i32 2), align 8, !tbaa !22
  %46 = and i32 32, %45
  %47 = icmp ne i32 %46, 0
  br i1 %47, label %48, label %56

48:                                               ; preds = %44
  %49 = load i32, ptr getelementptr inbounds nuw (%struct.darktable_t, ptr @darktable, i32 0, i32 2), align 8, !tbaa !22
  %50 = xor i32 %49, -1
  %51 = and i32 0, %50
  %52 = icmp ne i32 %51, 0
  br i1 %52, label %56, label %53

53:                                               ; preds = %48
  %54 = load i32, ptr %5, align 4, !tbaa !64
  %55 = add nsw i32 %54, 1
  call void (ptr, ...) @dt_print_ext(ptr noundef @.str.40, i32 noundef %55)
  br label %56

56:                                               ; preds = %53, %48, %44
  br label %57

57:                                               ; preds = %56
  br label %58

58:                                               ; preds = %57
  store i32 0, ptr %5, align 4, !tbaa !64
  %59 = load double, ptr %8, align 8, !tbaa !73
  store double %59, ptr %6, align 8, !tbaa !73
  br label %63

60:                                               ; preds = %34
  %61 = load i32, ptr %5, align 4, !tbaa !64
  %62 = add nsw i32 %61, 1
  store i32 %62, ptr %5, align 4, !tbaa !64
  br label %63

63:                                               ; preds = %60, %58
  call void @llvm.lifetime.start.p0(i64 8, ptr %9) #10
  %64 = call noalias ptr @g_malloc(i64 noundef 4) #11
  store ptr %64, ptr %9, align 8, !tbaa !74
  %65 = load ptr, ptr %9, align 8, !tbaa !74
  %66 = getelementptr inbounds nuw %struct._camctl_camera_job_t, ptr %65, i32 0, i32 0
  store i32 2, ptr %66, align 4, !tbaa !76
  %67 = load ptr, ptr %3, align 8, !tbaa !6
  %68 = load ptr, ptr %4, align 8, !tbaa !21
  %69 = load ptr, ptr %9, align 8, !tbaa !74
  call void @_camera_add_job(ptr noundef %67, ptr noundef %68, ptr noundef %69)
  %70 = load i32, ptr %7, align 4, !tbaa !64
  %71 = sitofp i32 %70 to double
  %72 = fdiv reassoc nsz arcp contract afn double 1.000000e+00, %71
  %73 = fmul reassoc nsz arcp contract afn double %72, 1.000000e+06
  %74 = fptoui double %73 to i64
  call void @g_usleep(i64 noundef %74)
  call void @llvm.lifetime.end.p0(i64 8, ptr %9) #10
  call void @llvm.lifetime.end.p0(i64 8, ptr %8) #10
  br label %29

75:                                               ; preds = %29
  br label %76

76:                                               ; preds = %75
  %77 = load i32, ptr getelementptr inbounds nuw (%struct.darktable_t, ptr @darktable, i32 0, i32 2), align 8, !tbaa !22
  %78 = and i32 32, %77
  %79 = icmp ne i32 %78, 0
  br i1 %79, label %80, label %86

80:                                               ; preds = %76
  %81 = load i32, ptr getelementptr inbounds nuw (%struct.darktable_t, ptr @darktable, i32 0, i32 2), align 8, !tbaa !22
  %82 = xor i32 %81, -1
  %83 = and i32 0, %82
  %84 = icmp ne i32 %83, 0
  br i1 %84, label %86, label %85

85:                                               ; preds = %80
  call void (ptr, ...) @dt_print_ext(ptr noundef @.str.41)
  br label %86

86:                                               ; preds = %85, %80, %76
  br label %87

87:                                               ; preds = %86
  br label %88

88:                                               ; preds = %87
  call void @llvm.lifetime.end.p0(i64 4, ptr %7) #10
  call void @llvm.lifetime.end.p0(i64 8, ptr %6) #10
  call void @llvm.lifetime.end.p0(i64 4, ptr %5) #10
  call void @llvm.lifetime.end.p0(i64 8, ptr %4) #10
  call void @llvm.lifetime.end.p0(i64 8, ptr %3) #10
  ret ptr null
}