; Function Attrs: nounwind uwtable
define internal noalias noundef ptr @dt_camctl_camera_get_live_view(ptr noundef readonly captures(none) %0) #0 {
  %2 = alloca %struct.timeval, align 8
  %3 = alloca %struct.timeval, align 8
  %4 = getelementptr inbounds nuw i8, ptr %0, i64 144
  %5 = load ptr, ptr %4, align 8, !tbaa !6
  tail call void @dt_pthread_setname(ptr noundef nonnull @.str.37) #15
  %6 = load i32, ptr getelementptr inbounds nuw (i8, ptr @darktable, i64 8), align 8, !tbaa !19
  %7 = and i32 %6, 32
  %.not = icmp eq i32 %7, 0
  br i1 %.not, label %9, label %8

8:                                                ; preds = %1
  tail call void (ptr, ...) @dt_print_ext(ptr noundef nonnull @.str.38) #15
  br label %9

9:                                                ; preds = %8, %1
  call void @llvm.lifetime.start.p0(i64 16, ptr nonnull %3) #15
  %10 = call i32 @gettimeofday(ptr noundef nonnull %3, ptr noundef null) #15
  %11 = load i64, ptr %3, align 8, !tbaa !67
  %12 = getelementptr inbounds nuw i8, ptr %3, i64 8
  %13 = load i64, ptr %12, align 8, !tbaa !69
  call void @llvm.lifetime.end.p0(i64 16, ptr nonnull %3) #15
  %14 = tail call i32 @dt_conf_get_int(ptr noundef nonnull @.str.39) #15
  %15 = getelementptr inbounds nuw i8, ptr %5, i64 32980
  %16 = load i32, ptr %15, align 4, !tbaa !60
  %17 = icmp eq i32 %16, 1
  br i1 %17, label %.lr.ph, label %._crit_edge

.lr.ph:                                           ; preds = %9
  %18 = sitofp i64 %13 to double
  %19 = fmul reassoc nsz arcp contract afn double %18, 0x3EB0C6F7A0B5ED8D
  %20 = add nsw i64 %11, -1290608000
  %21 = sitofp i64 %20 to double
  %22 = fadd reassoc nsz arcp contract afn double %19, %21
  %23 = getelementptr inbounds nuw i8, ptr %5, i64 33072
  %24 = getelementptr inbounds nuw i8, ptr %2, i64 8
  %25 = getelementptr inbounds nuw i8, ptr %5, i64 32888
  %26 = getelementptr inbounds nuw i8, ptr %5, i64 32928
  %27 = sitofp i32 %14 to double
  %28 = fdiv reassoc nsz arcp contract afn double 1.000000e+06, %27
  %29 = fptoui double %28 to i64
  br label %30

30:                                               ; preds = %.lr.ph, %49
  %.018 = phi i32 [ 0, %.lr.ph ], [ %.1, %49 ]
  %.01317 = phi double [ %22, %.lr.ph ], [ %.114, %49 ]
  %31 = tail call i32 @pthread_mutex_lock(ptr noundef nonnull %23) #15
  call void @llvm.lifetime.start.p0(i64 16, ptr nonnull %2) #15
  %32 = call i32 @gettimeofday(ptr noundef nonnull %2, ptr noundef null) #15
  %33 = load i64, ptr %2, align 8, !tbaa !67
  %34 = add nsw i64 %33, -1290608000
  %35 = sitofp i64 %34 to double
  %36 = load i64, ptr %24, align 8, !tbaa !69
  %37 = sitofp i64 %36 to double
  %38 = fmul reassoc nsz arcp contract afn double %37, 0x3EB0C6F7A0B5ED8D
  %39 = fadd reassoc nsz arcp contract afn double %38, %35
  call void @llvm.lifetime.end.p0(i64 16, ptr nonnull %2) #15
  %40 = fsub reassoc nsz arcp contract afn double %39, %.01317
  %41 = fcmp reassoc nsz arcp contract afn ult double %40, 1.000000e+00
  br i1 %41, label %47, label %42

42:                                               ; preds = %30
  %43 = load i32, ptr getelementptr inbounds nuw (i8, ptr @darktable, i64 8), align 8, !tbaa !19
  %44 = and i32 %43, 32
  %.not16 = icmp eq i32 %44, 0
  br i1 %.not16, label %49, label %45

45:                                               ; preds = %42
  %46 = add nsw i32 %.018, 1
  tail call void (ptr, ...) @dt_print_ext(ptr noundef nonnull @.str.40, i32 noundef %46) #15
  br label %49

47:                                               ; preds = %30
  %48 = add nsw i32 %.018, 1
  br label %49

49:                                               ; preds = %42, %45, %47
  %.114 = phi nsz double [ %.01317, %47 ], [ %39, %45 ], [ %39, %42 ]
  %.1 = phi i32 [ %48, %47 ], [ 0, %45 ], [ 0, %42 ]
  %50 = tail call noalias dereferenceable_or_null(4) ptr @g_malloc(i64 noundef 4) #16
  store i32 2, ptr %50, align 4, !tbaa !70
  %51 = tail call i32 @pthread_mutex_lock(ptr noundef nonnull %25) #15
  %52 = load ptr, ptr %26, align 8, !tbaa !66
  %53 = tail call ptr @g_list_append(ptr noundef %52, ptr noundef nonnull %50) #15
  store ptr %53, ptr %26, align 8, !tbaa !66
  %54 = tail call i32 @pthread_mutex_unlock(ptr noundef nonnull %25) #15
  tail call void @g_usleep(i64 noundef %29) #15
  %55 = load i32, ptr %15, align 4, !tbaa !60
  %56 = icmp eq i32 %55, 1
  br i1 %56, label %30, label %._crit_edge

._crit_edge:                                      ; preds = %49, %9
  %57 = load i32, ptr getelementptr inbounds nuw (i8, ptr @darktable, i64 8), align 8, !tbaa !19
  %58 = and i32 %57, 32
  %.not15 = icmp eq i32 %58, 0
  br i1 %.not15, label %60, label %59

59:                                               ; preds = %._crit_edge
  tail call void (ptr, ...) @dt_print_ext(ptr noundef nonnull @.str.41) #15
  br label %60

60:                                               ; preds = %59, %._crit_edge
  ret ptr null
}